(ikeras_frcnn.config
Config
p0
(dp1
S'use_vertical_flips'
p2
I00
sS'verbose'
p3
I01
sS'classifier_regr_std'
p4
(lp5
F8.0
aF8.0
aF4.0
aF4.0
asS'classifier_min_overlap'
p6
F0.1
sS'rot_90'
p7
I00
sS'class_mapping'
p8
(dp9
S'sheep'
p10
I10
sS'bottle'
p11
I16
sS'horse'
p12
I15
sS'bg'
p13
I20
sS'bicycle'
p14
I11
sS'motorbike'
p15
I13
sS'cow'
p16
I19
sS'car'
p17
I5
sS'dog'
p18
I14
sS'bus'
p19
I17
sS'cat'
p20
I0
sS'person'
p21
I3
sS'train'
p22
I4
sS'boat'
p23
I18
sS'aeroplane'
p24
I12
sS'sofa'
p25
I6
sS'pottedplant'
p26
I7
sS'tvmonitor'
p27
I8
sS'chair'
p28
I1
sS'bird'
p29
I9
sS'diningtable'
p30
I2
ssS'use_horizontal_flips'
p31
I00
sS'rpn_max_overlap'
p32
F0.7
sS'network'
p33
S'resnet50'
p34
sS'img_channel_mean'
p35
(lp36
F103.939
aF116.779
aF123.68
asS'balanced_classes'
p37
I00
sS'anchor_box_ratios'
p38
(lp39
(lp40
I1
aI1
aa(lp41
F0.7071067811865475
aF1.414213562373095
aa(lp42
F1.414213562373095
aF0.7071067811865475
aasS'img_scaling_factor'
p43
F1.0
sS'rpn_stride'
p44
I16
sS'num_rois'
p45
I32
sS'base_net_weights'
p46
S'resnet50_weights_tf_dim_ordering_tf_kernels.h5'
p47
sS'anchor_box_scales'
p48
(lp49
I128
aI256
aI512
asS'rpn_min_overlap'
p50
F0.3
sS'model_path'
p51
S'./model_frcnn.hdf5'
p52
sS'classifier_max_overlap'
p53
F0.5
sS'std_scaling'
p54
F4.0
sS'im_size'
p55
I600
sb.